target datalayout = "e-m:e-p270:32:32-p271:32:32-p272:64:64-i64:64-i128:128-f80:128-n8:16:32:64-S128"
target triple = "x86_64-pc-linux-gnu"

%struct.jv = type { i8, i8, i16, i32, %union.anon }
%union.anon = type { ptr }

; Function Attrs: nounwind uwtable
define internal { i64, ptr } @f_isnormal(ptr noundef %0, i64 %1, ptr %2) #0 {
  %4 = alloca %struct.jv, align 8
  %5 = alloca %struct.jv, align 8
  %6 = alloca ptr, align 8
  %7 = alloca i32, align 4
  %8 = alloca i32, align 4
  %9 = alloca double, align 8
  %10 = getelementptr inbounds nuw { i64, ptr }, ptr %5, i32 0, i32 0
  store i64 %1, ptr %10, align 8
  %11 = getelementptr inbounds nuw { i64, ptr }, ptr %5, i32 0, i32 1
  store ptr %2, ptr %11, align 8
  store ptr %0, ptr %6, align 8, !tbaa !25
  call void @llvm.lifetime.start.p0(i64 4, ptr %7) #10
  %12 = getelementptr inbounds nuw { i64, ptr }, ptr %5, i32 0, i32 0
  %13 = load i64, ptr %12, align 8
  %14 = getelementptr inbounds nuw { i64, ptr }, ptr %5, i32 0, i32 1
  %15 = load ptr, ptr %14, align 8
  %16 = call i32 @jv_get_kind(i64 %13, ptr %15)
  store i32 %16, ptr %7, align 4, !tbaa !10
  %17 = load i32, ptr %7, align 4, !tbaa !10
  %18 = icmp ne i32 %17, 4
  br i1 %18, label %19, label %29

19:                                               ; preds = %3
  %20 = getelementptr inbounds nuw { i64, ptr }, ptr %5, i32 0, i32 0
  %21 = load i64, ptr %20, align 8
  %22 = getelementptr inbounds nuw { i64, ptr }, ptr %5, i32 0, i32 1
  %23 = load ptr, ptr %22, align 8
  call void @jv_free(i64 %21, ptr %23)
  %24 = call { i64, ptr } @jv_false()
  %25 = getelementptr inbounds nuw { i64, ptr }, ptr %4, i32 0, i32 0
  %26 = extractvalue { i64, ptr } %24, 0
  store i64 %26, ptr %25, align 8
  %27 = getelementptr inbounds nuw { i64, ptr }, ptr %4, i32 0, i32 1
  %28 = extractvalue { i64, ptr } %24, 1
  store ptr %28, ptr %27, align 8
  store i32 1, ptr %8, align 4
  br label %54

29:                                               ; preds = %3
  call void @llvm.lifetime.start.p0(i64 8, ptr %9) #10
  %30 = getelementptr inbounds nuw { i64, ptr }, ptr %5, i32 0, i32 0
  %31 = load i64, ptr %30, align 8
  %32 = getelementptr inbounds nuw { i64, ptr }, ptr %5, i32 0, i32 1
  %33 = load ptr, ptr %32, align 8
  %34 = call double @jv_number_value(i64 %31, ptr %33)
  store double %34, ptr %9, align 8, !tbaa !20
  %35 = getelementptr inbounds nuw { i64, ptr }, ptr %5, i32 0, i32 0
  %36 = load i64, ptr %35, align 8
  %37 = getelementptr inbounds nuw { i64, ptr }, ptr %5, i32 0, i32 1
  %38 = load ptr, ptr %37, align 8
  call void @jv_free(i64 %36, ptr %38)
  %39 = load double, ptr %9, align 8, !tbaa !20
  %40 = call i1 @llvm.is.fpclass.f64(double %39, i32 264)
  br i1 %40, label %41, label %47

41:                                               ; preds = %29
  %42 = call { i64, ptr } @jv_true()
  %43 = getelementptr inbounds nuw { i64, ptr }, ptr %4, i32 0, i32 0
  %44 = extractvalue { i64, ptr } %42, 0
  store i64 %44, ptr %43, align 8
  %45 = getelementptr inbounds nuw { i64, ptr }, ptr %4, i32 0, i32 1
  %46 = extractvalue { i64, ptr } %42, 1
  store ptr %46, ptr %45, align 8
  br label %53

47:                                               ; preds = %29
  %48 = call { i64, ptr } @jv_false()
  %49 = getelementptr inbounds nuw { i64, ptr }, ptr %4, i32 0, i32 0
  %50 = extractvalue { i64, ptr } %48, 0
  store i64 %50, ptr %49, align 8
  %51 = getelementptr inbounds nuw { i64, ptr }, ptr %4, i32 0, i32 1
  %52 = extractvalue { i64, ptr } %48, 1
  store ptr %52, ptr %51, align 8
  br label %53

53:                                               ; preds = %47, %41
  store i32 1, ptr %8, align 4
  call void @llvm.lifetime.end.p0(i64 8, ptr %9) #10
  br label %54

54:                                               ; preds = %53, %19
  call void @llvm.lifetime.end.p0(i64 4, ptr %7) #10
  %55 = load { i64, ptr }, ptr %4, align 8
  ret { i64, ptr } %55
}